target datalayout = "e-m:e-p270:32:32-p271:32:32-p272:64:64-i64:64-i128:128-f80:128-n8:16:32:64-S128"
target triple = "x86_64-pc-linux-gnu"

; Function Attrs: nounwind uwtable
define internal void @pred8x8_left_dc_12_c(ptr noundef %0, i64 noundef %1) #1 {
  %3 = alloca ptr, align 8
  %4 = alloca i64, align 8
  %5 = alloca i32, align 4
  %6 = alloca i32, align 4
  %7 = alloca i32, align 4
  %8 = alloca i64, align 8
  %9 = alloca i64, align 8
  %10 = alloca ptr, align 8
  store ptr %0, ptr %3, align 8, !tbaa !12
  store i64 %1, ptr %4, align 8, !tbaa !14
  call void @llvm.lifetime.start.p0(i64 4, ptr %5) #9
  call void @llvm.lifetime.start.p0(i64 4, ptr %6) #9
  call void @llvm.lifetime.start.p0(i64 4, ptr %7) #9
  call void @llvm.lifetime.start.p0(i64 8, ptr %8) #9
  call void @llvm.lifetime.start.p0(i64 8, ptr %9) #9
  call void @llvm.lifetime.start.p0(i64 8, ptr %10) #9
  %11 = load ptr, ptr %3, align 8, !tbaa !12
  store ptr %11, ptr %10, align 8, !tbaa !16
  %12 = load i64, ptr %4, align 8, !tbaa !14
  %13 = ashr i64 %12, 1
  store i64 %13, ptr %4, align 8, !tbaa !14
  store i32 0, ptr %7, align 4, !tbaa !9
  store i32 0, ptr %6, align 4, !tbaa !9
  store i32 0, ptr %5, align 4, !tbaa !9
  br label %14

14:                                               ; preds = %41, %2
  %15 = load i32, ptr %5, align 4, !tbaa !9
  %16 = icmp slt i32 %15, 4
  br i1 %16, label %17, label %44

17:                                               ; preds = %14
  %18 = load ptr, ptr %10, align 8, !tbaa !16
  %19 = load i32, ptr %5, align 4, !tbaa !9
  %20 = sext i32 %19 to i64
  %21 = load i64, ptr %4, align 8, !tbaa !14
  %22 = mul nsw i64 %20, %21
  %23 = add nsw i64 -1, %22
  %24 = getelementptr inbounds i16, ptr %18, i64 %23
  %25 = load i16, ptr %24, align 2, !tbaa !19
  %26 = zext i16 %25 to i32
  %27 = load i32, ptr %6, align 4, !tbaa !9
  %28 = add nsw i32 %27, %26
  store i32 %28, ptr %6, align 4, !tbaa !9
  %29 = load ptr, ptr %10, align 8, !tbaa !16
  %30 = load i32, ptr %5, align 4, !tbaa !9
  %31 = add nsw i32 %30, 4
  %32 = sext i32 %31 to i64
  %33 = load i64, ptr %4, align 8, !tbaa !14
  %34 = mul nsw i64 %32, %33
  %35 = add nsw i64 -1, %34
  %36 = getelementptr inbounds i16, ptr %29, i64 %35
  %37 = load i16, ptr %36, align 2, !tbaa !19
  %38 = zext i16 %37 to i32
  %39 = load i32, ptr %7, align 4, !tbaa !9
  %40 = add nsw i32 %39, %38
  store i32 %40, ptr %7, align 4, !tbaa !9
  br label %41

41:                                               ; preds = %17
  %42 = load i32, ptr %5, align 4, !tbaa !9
  %43 = add nsw i32 %42, 1
  store i32 %43, ptr %5, align 4, !tbaa !9
  br label %14, !llvm.loop !151

44:                                               ; preds = %14
  %45 = load i32, ptr %6, align 4, !tbaa !9
  %46 = add nsw i32 %45, 2
  %47 = ashr i32 %46, 2
  %48 = sext i32 %47 to i64
  %49 = mul i64 %48, 281479271743489
  store i64 %49, ptr %8, align 8, !tbaa !14
  %50 = load i32, ptr %7, align 4, !tbaa !9
  %51 = add nsw i32 %50, 2
  %52 = ashr i32 %51, 2
  %53 = sext i32 %52 to i64
  %54 = mul i64 %53, 281479271743489
  store i64 %54, ptr %9, align 8, !tbaa !14
  store i32 0, ptr %5, align 4, !tbaa !9
  br label %55

55:                                               ; preds = %75, %44
  %56 = load i32, ptr %5, align 4, !tbaa !9
  %57 = icmp slt i32 %56, 4
  br i1 %57, label %58, label %78

58:                                               ; preds = %55
  %59 = load i64, ptr %8, align 8, !tbaa !14
  %60 = load ptr, ptr %10, align 8, !tbaa !16
  %61 = load i32, ptr %5, align 4, !tbaa !9
  %62 = sext i32 %61 to i64
  %63 = load i64, ptr %4, align 8, !tbaa !14
  %64 = mul nsw i64 %62, %63
  %65 = getelementptr inbounds i16, ptr %60, i64 %64
  %66 = getelementptr inbounds i64, ptr %65, i64 0
  store i64 %59, ptr %66, align 8, !tbaa !18
  %67 = load i64, ptr %8, align 8, !tbaa !14
  %68 = load ptr, ptr %10, align 8, !tbaa !16
  %69 = load i32, ptr %5, align 4, !tbaa !9
  %70 = sext i32 %69 to i64
  %71 = load i64, ptr %4, align 8, !tbaa !14
  %72 = mul nsw i64 %70, %71
  %73 = getelementptr inbounds i16, ptr %68, i64 %72
  %74 = getelementptr inbounds i64, ptr %73, i64 1
  store i64 %67, ptr %74, align 8, !tbaa !18
  br label %75

75:                                               ; preds = %58
  %76 = load i32, ptr %5, align 4, !tbaa !9
  %77 = add nsw i32 %76, 1
  store i32 %77, ptr %5, align 4, !tbaa !9
  br label %55, !llvm.loop !152

78:                                               ; preds = %55
  store i32 4, ptr %5, align 4, !tbaa !9
  br label %79

79:                                               ; preds = %99, %78
  %80 = load i32, ptr %5, align 4, !tbaa !9
  %81 = icmp slt i32 %80, 8
  br i1 %81, label %82, label %102

82:                                               ; preds = %79
  %83 = load i64, ptr %9, align 8, !tbaa !14
  %84 = load ptr, ptr %10, align 8, !tbaa !16
  %85 = load i32, ptr %5, align 4, !tbaa !9
  %86 = sext i32 %85 to i64
  %87 = load i64, ptr %4, align 8, !tbaa !14
  %88 = mul nsw i64 %86, %87
  %89 = getelementptr inbounds i16, ptr %84, i64 %88
  %90 = getelementptr inbounds i64, ptr %89, i64 0
  store i64 %83, ptr %90, align 8, !tbaa !18
  %91 = load i64, ptr %9, align 8, !tbaa !14
  %92 = load ptr, ptr %10, align 8, !tbaa !16
  %93 = load i32, ptr %5, align 4, !tbaa !9
  %94 = sext i32 %93 to i64
  %95 = load i64, ptr %4, align 8, !tbaa !14
  %96 = mul nsw i64 %94, %95
  %97 = getelementptr inbounds i16, ptr %92, i64 %96
  %98 = getelementptr inbounds i64, ptr %97, i64 1
  store i64 %91, ptr %98, align 8, !tbaa !18
  br label %99

99:                                               ; preds = %82
  %100 = load i32, ptr %5, align 4, !tbaa !9
  %101 = add nsw i32 %100, 1
  store i32 %101, ptr %5, align 4, !tbaa !9
  br label %79, !llvm.loop !153

102:                                              ; preds = %79
  call void @llvm.lifetime.end.p0(i64 8, ptr %10) #9
  call void @llvm.lifetime.end.p0(i64 8, ptr %9) #9
  call void @llvm.lifetime.end.p0(i64 8, ptr %8) #9
  call void @llvm.lifetime.end.p0(i64 4, ptr %7) #9
  call void @llvm.lifetime.end.p0(i64 4, ptr %6) #9
  call void @llvm.lifetime.end.p0(i64 4, ptr %5) #9
  ret void
}